Certificate:
    Data:
        Version: 3 (0x2)
        Serial Number: 11777961998847648574 (0xa373ba091f5d233e)
    Signature Algorithm: sha256WithRSAEncryption
        Issuer: C=CN, ST=Beijing, L=Xicheng Qu, Beijing Shi, O=Crazy House Technology Co., Ltd, OU=Crazy House Technology Co., Ltd, CN=Crazy House Technology Co., Ltd. root certificate
        Validity
            Not Before: Dec 10 08:49:02 2017 GMT
            Not After : Dec 10 08:49:02 2027 GMT
        Subject: C=CN, ST=Beijing, L=Xicheng Qu, Beijing Shi, O=Crazy House Technology Co., Ltd, OU=Crazy House Technology Co., Ltd, CN=Crazy House Technology Co., Ltd. root certificate
        Subject Public Key Info:
            Public Key Algorithm: rsaEncryption
                Public-Key: (2048 bit)
                Modulus:
                    00:d9:20:86:93:6a:26:5c:1b:67:8f:cd:5e:a7:dc:
                    17:31:0f:ad:d1:7d:05:87:60:78:4b:3c:ed:b0:f0:
                    bf:20:2e:23:60:3b:b6:7c:d7:7d:7c:96:66:f8:5f:
                    8d:75:f2:78:c3:1c:bd:32:6c:78:3e:c0:bb:1e:14:
                    b7:60:e3:71:4e:6f:ba:19:c1:60:2e:fa:49:ab:81:
                    7f:72:ae:0a:b3:05:53:81:8a:c0:98:f8:c2:f2:2e:
                    ab:00:e0:96:6c:9f:16:9e:55:d8:b7:5c:88:0f:26:
                    09:2c:9a:0c:fa:04:c5:6d:62:c5:83:00:20:9e:41:
                    80:3d:41:37:8c:35:a9:e2:94:7b:bf:7a:02:34:00:
                    72:fb:9d:aa:ab:fa:f2:00:91:58:a0:2d:90:bf:fc:
                    8b:d2:bd:ea:df:1e:87:58:ff:63:6b:1c:42:d4:71:
                    e4:8f:15:86:f1:a4:59:1c:e1:f7:23:9f:ed:63:4c:
                    65:0a:99:62:c9:18:dc:fd:39:2d:40:76:f2:99:cd:
                    49:26:42:df:dd:9b:87:96:ef:29:f5:59:81:0f:b9:
                    7d:dc:90:76:c1:8f:3e:c2:43:c5:e0:4f:d8:fe:61:
                    4c:57:32:fa:af:ea:6a:ea:58:ee:b2:af:2b:42:ac:
                    c1:41:cd:41:86:10:5f:94:7b:c0:84:fe:0a:c6:b1:
                    0f:81
                Exponent: 65537 (0x10001)
        X509v3 extensions:
            X509v3 Basic Constraints: critical
                CA:TRUE, pathlen:0
            Netscape Cert Type: 
                Object Signing, SSL CA, S/MIME CA, Object Signing CA
            Netscape Comment: 
                Crazy House Technology Co., Ltd. root certificate
            Netscape Revocation Url: 
                http://gfw.com/ca/gfw_com.ca.crl
            Netscape CA Revocation Url: 
                http://gfw.com/ca/gfw_com.ca.crl
            X509v3 Key Usage: critical
                Certificate Sign, CRL Sign
            X509v3 Extended Key Usage: 
                TLS Web Server Authentication, TLS Web Client Authentication, Code Signing, E-mail Protection, Time Stamping
            X509v3 Issuer Alternative Name: 
                URI:http://gfw.com/ca/gfw_com.ca.crt, DNS:gfw.com, DNS:*.gfw.com, email:ca@gfw.com
            X509v3 Subject Alternative Name: 
                URI:http://gfw.com/ca/gfw_com.ca.crt, DNS:gfw.com, DNS:*.gfw.com, email:ca@gfw.com
            X509v3 Subject Key Identifier: 
                C8:E9:D9:27:38:9A:67:37:35:FC:CE:90:AB:0E:C5:65:78:B0:A4:77
            X509v3 Authority Key Identifier: 
                keyid:C8:E9:D9:27:38:9A:67:37:35:FC:CE:90:AB:0E:C5:65:78:B0:A4:77
                DirName:/C=CN/ST=Beijing/L=Xicheng Qu, Beijing Shi/O=Crazy House Technology Co., Ltd/OU=Crazy House Technology Co., Ltd/CN=Crazy House Technology Co., Ltd. root certificate
                serial:A3:73:BA:09:1F:5D:23:3E

            Authority Information Access: 
                CA Issuers - URI:http://gfw.com/ca/gfw_com.ca.crt

            X509v3 CRL Distribution Points: 

                Full Name:
                  URI:http://gfw.com/ca/gfw_com.ca.crl

    Signature Algorithm: sha256WithRSAEncryption
         a4:bb:fa:6a:0b:0f:0d:d2:3b:71:2c:93:94:ea:14:42:72:6f:
         95:3e:64:09:ab:a8:8d:ff:d4:72:42:c6:93:e7:91:3b:8c:64:
         06:fc:e0:be:9f:00:d5:f8:f0:f1:43:1c:56:27:fe:7a:c3:3a:
         36:bf:ba:4e:c9:a6:d5:05:57:1c:b3:34:b6:40:ed:f4:47:38:
         90:5e:7d:97:0b:3b:3a:df:d6:a8:21:8f:42:97:a2:74:df:f8:
         be:5f:c8:1c:e2:90:ef:04:a0:75:43:d7:87:bc:c7:ae:23:0e:
         6f:c4:53:df:4e:c9:7d:8b:a5:f3:07:f9:cf:38:01:19:7c:ee:
         9d:d0:26:6e:0b:94:49:92:e4:b5:00:4e:c5:31:d6:35:98:9d:
         66:89:bd:a9:49:ea:ff:e1:3b:18:8b:9e:04:cf:ce:15:c8:cf:
         9d:1c:bc:2e:e2:64:2a:fc:28:bb:59:22:aa:41:82:cd:8e:da:
         3c:f5:f5:c7:e5:1b:35:1b:1a:b1:82:25:b4:50:40:cd:fe:a7:
         ac:b5:27:ac:b8:7b:ce:b1:7e:c6:63:04:87:2c:fe:3b:37:5a:
         fb:ee:80:f7:5c:9c:6a:77:c6:f1:40:8c:e6:06:e9:b9:f7:17:
         fc:9b:5a:5f:8e:da:21:2a:fe:c5:b1:28:b2:14:21:b2:2a:e9:
         0f:ae:33:94
-----BEGIN CERTIFICATE-----
MIIHeTCCBmGgAwIBAgIJAKNzugkfXSM+MA0GCSqGSIb3DQEBCwUAMIHRMQswCQYD
VQQGEwJDTjEQMA4GA1UECBMHQmVpamluZzEgMB4GA1UEBxMXWGljaGVuZyBRdSwg
QmVpamluZyBTaGkxKDAmBgNVBAoTH0NyYXp5IEhvdXNlIFRlY2hub2xvZ3kgQ28u
LCBMdGQxKDAmBgNVBAsTH0NyYXp5IEhvdXNlIFRlY2hub2xvZ3kgQ28uLCBMdGQx
OjA4BgNVBAMTMUNyYXp5IEhvdXNlIFRlY2hub2xvZ3kgQ28uLCBMdGQuIHJvb3Qg
Y2VydGlmaWNhdGUwHhcNMTcxMjEwMDg0OTAyWhcNMjcxMjEwMDg0OTAyWjCB0TEL
MAkGA1UEBhMCQ04xEDAOBgNVBAgTB0JlaWppbmcxIDAeBgNVBAcTF1hpY2hlbmcg
UXUsIEJlaWppbmcgU2hpMSgwJgYDVQQKEx9DcmF6eSBIb3VzZSBUZWNobm9sb2d5
IENvLiwgTHRkMSgwJgYDVQQLEx9DcmF6eSBIb3VzZSBUZWNobm9sb2d5IENvLiwg
THRkMTowOAYDVQQDEzFDcmF6eSBIb3VzZSBUZWNobm9sb2d5IENvLiwgTHRkLiBy
b290IGNlcnRpZmljYXRlMIIBIjANBgkqhkiG9w0BAQEFAAOCAQ8AMIIBCgKCAQEA
2SCGk2omXBtnj81ep9wXMQ+t0X0Fh2B4SzztsPC/IC4jYDu2fNd9fJZm+F+NdfJ4
wxy9Mmx4PsC7HhS3YONxTm+6GcFgLvpJq4F/cq4KswVTgYrAmPjC8i6rAOCWbJ8W
nlXYt1yIDyYJLJoM+gTFbWLFgwAgnkGAPUE3jDWp4pR7v3oCNABy+52qq/ryAJFY
oC2Qv/yL0r3q3x6HWP9jaxxC1HHkjxWG8aRZHOH3I5/tY0xlCpliyRjc/TktQHby
mc1JJkLf3ZuHlu8p9VmBD7l93JB2wY8+wkPF4E/Y/mFMVzL6r+pq6ljusq8rQqzB
Qc1BhhBflHvAhP4KxrEPgQIDAQABo4IDUDCCA0wwEgYDVR0TAQH/BAgwBgEB/wIB
ADARBglghkgBhvhCAQEEBAMCABcwQAYJYIZIAYb4QgENBDMWMUNyYXp5IEhvdXNl
IFRlY2hub2xvZ3kgQ28uLCBMdGQuIHJvb3QgY2VydGlmaWNhdGUwLwYJYIZIAYb4
QgEDBCIWIGh0dHA6Ly9nZncuY29tL2NhL2dmd19jb20uY2EuY3JsMC8GCWCGSAGG
+EIBBAQiFiBodHRwOi8vZ2Z3LmNvbS9jYS9nZndfY29tLmNhLmNybDAOBgNVHQ8B
Af8EBAMCAQYwOwYDVR0lBDQwMgYIKwYBBQUHAwEGCCsGAQUFBwMCBggrBgEFBQcD
AwYIKwYBBQUHAwQGCCsGAQUFBwMIMEsGA1UdEgREMEKGIGh0dHA6Ly9nZncuY29t
L2NhL2dmd19jb20uY2EuY3J0ggdnZncuY29tggkqLmdmdy5jb22BCmNhQGdmdy5j
b20wSwYDVR0RBEQwQoYgaHR0cDovL2dmdy5jb20vY2EvZ2Z3X2NvbS5jYS5jcnSC
B2dmdy5jb22CCSouZ2Z3LmNvbYEKY2FAZ2Z3LmNvbTAdBgNVHQ4EFgQUyOnZJzia
Zzc1/M6Qqw7FZXiwpHcwggEGBgNVHSMEgf4wgfuAFMjp2Sc4mmc3NfzOkKsOxWV4
sKR3oYHXpIHUMIHRMQswCQYDVQQGEwJDTjEQMA4GA1UECBMHQmVpamluZzEgMB4G
A1UEBxMXWGljaGVuZyBRdSwgQmVpamluZyBTaGkxKDAmBgNVBAoTH0NyYXp5IEhv
dXNlIFRlY2hub2xvZ3kgQ28uLCBMdGQxKDAmBgNVBAsTH0NyYXp5IEhvdXNlIFRl
Y2hub2xvZ3kgQ28uLCBMdGQxOjA4BgNVBAMTMUNyYXp5IEhvdXNlIFRlY2hub2xv
Z3kgQ28uLCBMdGQuIHJvb3QgY2VydGlmaWNhdGWCCQCjc7oJH10jPjA8BggrBgEF
BQcBAQQwMC4wLAYIKwYBBQUHMAKGIGh0dHA6Ly9nZncuY29tL2NhL2dmd19jb20u
Y2EuY3J0MDEGA1UdHwQqMCgwJqAkoCKGIGh0dHA6Ly9nZncuY29tL2NhL2dmd19j
b20uY2EuY3JsMA0GCSqGSIb3DQEBCwUAA4IBAQCku/pqCw8N0jtxLJOU6hRCcm+V
PmQJq6iN/9RyQsaT55E7jGQG/OC+nwDV+PDxQxxWJ/56wzo2v7pOyabVBVccszS2
QO30RziQXn2XCzs639aoIY9Cl6J03/i+X8gc4pDvBKB1Q9eHvMeuIw5vxFPfTsl9
i6XzB/nPOAEZfO6d0CZuC5RJkuS1AE7FMdY1mJ1mib2pSer/4TsYi54Ez84VyM+d
HLwu4mQq/Ci7WSKqQYLNjto89fXH5Rs1GxqxgiW0UEDN/qestSesuHvOsX7GYwSH
LP47N1r77oD3XJxqd8bxQIzmBum59xf8m1pfjtohKv7FsSiyFCGyKukPrjOU
-----END CERTIFICATE-----
